target datalayout = "e-m:e-p270:32:32-p271:32:32-p272:64:64-i64:64-i128:128-f80:128-n8:16:32:64-S128"
target triple = "x86_64-pc-linux-gnu"

%struct.SpecifierOptList = type { ptr, i32, ptr, i32 }
%struct.OptionGroup = type { ptr, ptr, ptr, i32, ptr, ptr, ptr, ptr }
%struct.OptionsContext = type { ptr, i64, i64, i32, ptr, %struct.SpecifierOptList, %struct.SpecifierOptList, %struct.SpecifierOptList, %struct.SpecifierOptList, %struct.SpecifierOptList, %struct.SpecifierOptList, %struct.SpecifierOptList, %struct.SpecifierOptList, i64, i32, i32, float, float, double, i32, i32, i32, i32, %struct.SpecifierOptList, %struct.SpecifierOptList, %struct.SpecifierOptList, %struct.SpecifierOptList, %struct.SpecifierOptList, %struct.SpecifierOptList, %struct.SpecifierOptList, ptr, i32, ptr, i32, i32, i64, i64, i64, float, float, float, i32, i32, i32, i32, i32, i32, ptr, %struct.SpecifierOptList, %struct.SpecifierOptList, %struct.SpecifierOptList, %struct.SpecifierOptList, %struct.SpecifierOptList, %struct.SpecifierOptList, %struct.SpecifierOptList, %struct.SpecifierOptList, %struct.SpecifierOptList, %struct.SpecifierOptList, %struct.SpecifierOptList, %struct.SpecifierOptList, %struct.SpecifierOptList, %struct.SpecifierOptList, %struct.SpecifierOptList, %struct.SpecifierOptList, %struct.SpecifierOptList, %struct.SpecifierOptList, %struct.SpecifierOptList, %struct.SpecifierOptList, %struct.SpecifierOptList, %struct.SpecifierOptList, %struct.SpecifierOptList, %struct.SpecifierOptList, %struct.SpecifierOptList, %struct.SpecifierOptList, %struct.SpecifierOptList, %struct.SpecifierOptList, %struct.SpecifierOptList, %struct.SpecifierOptList, %struct.SpecifierOptList, %struct.SpecifierOptList, %struct.SpecifierOptList, %struct.SpecifierOptList, %struct.SpecifierOptList, %struct.SpecifierOptList, %struct.SpecifierOptList, %struct.SpecifierOptList, %struct.SpecifierOptList, %struct.SpecifierOptList, %struct.SpecifierOptList, %struct.SpecifierOptList, %struct.SpecifierOptList, %struct.SpecifierOptList, %struct.SpecifierOptList, %struct.SpecifierOptList, %struct.SpecifierOptList, %struct.SpecifierOptList, %struct.SpecifierOptList }

@.str.615 = private unnamed_addr constant [12 x i8] c"timecode=%s\00", align 1
@.str.616 = private unnamed_addr constant [11 x i8] c"metadata:g\00", align 1
@.str.617 = private unnamed_addr constant [13 x i8] c"gop_timecode\00", align 1

; Function Attrs: nounwind uwtable
define internal i32 @opt_timecode(ptr noundef %0, ptr noundef %1, ptr noundef %2) #0 {
  %4 = alloca i32, align 4
  %5 = alloca ptr, align 8
  %6 = alloca ptr, align 8
  %7 = alloca ptr, align 8
  %8 = alloca ptr, align 8
  %9 = alloca i32, align 4
  %10 = alloca ptr, align 8
  %11 = alloca i32, align 4
  store ptr %0, ptr %5, align 8, !tbaa !26
  store ptr %1, ptr %6, align 8, !tbaa !23
  store ptr %2, ptr %7, align 8, !tbaa !23
  call void @llvm.lifetime.start.p0(i64 8, ptr %8) #12
  %12 = load ptr, ptr %5, align 8, !tbaa !26
  store ptr %12, ptr %8, align 8, !tbaa !151
  call void @llvm.lifetime.start.p0(i64 4, ptr %9) #12
  call void @llvm.lifetime.start.p0(i64 8, ptr %10) #12
  %13 = load ptr, ptr %7, align 8, !tbaa !23
  %14 = call ptr (ptr, ...) @av_asprintf(ptr noundef @.str.615, ptr noundef %13)
  store ptr %14, ptr %10, align 8, !tbaa !23
  %15 = load ptr, ptr %10, align 8, !tbaa !23
  %16 = icmp ne ptr %15, null
  br i1 %16, label %18, label %17

17:                                               ; preds = %3
  store i32 -12, ptr %4, align 4
  store i32 1, ptr %11, align 4
  br label %34

18:                                               ; preds = %3
  %19 = load ptr, ptr %8, align 8, !tbaa !151
  %20 = load ptr, ptr %10, align 8, !tbaa !23
  %21 = call i32 @parse_option(ptr noundef %19, ptr noundef @.str.616, ptr noundef %20, ptr noundef @options)
  store i32 %21, ptr %9, align 4, !tbaa !16
  %22 = load i32, ptr %9, align 4, !tbaa !16
  %23 = icmp sge i32 %22, 0
  br i1 %23, label %24, label %31

24:                                               ; preds = %18
  %25 = load ptr, ptr %8, align 8, !tbaa !151
  %26 = getelementptr inbounds nuw %struct.OptionsContext, ptr %25, i32 0, i32 0
  %27 = load ptr, ptr %26, align 8, !tbaa !125
  %28 = getelementptr inbounds nuw %struct.OptionGroup, ptr %27, i32 0, i32 4
  %29 = load ptr, ptr %7, align 8, !tbaa !23
  %30 = call i32 @av_dict_set(ptr noundef %28, ptr noundef @.str.617, ptr noundef %29, i32 noundef 0)
  store i32 %30, ptr %9, align 4, !tbaa !16
  br label %31

31:                                               ; preds = %24, %18
  %32 = load ptr, ptr %10, align 8, !tbaa !23
  call void @av_free(ptr noundef %32)
  %33 = load i32, ptr %9, align 4, !tbaa !16
  store i32 %33, ptr %4, align 4
  store i32 1, ptr %11, align 4
  br label %34

34:                                               ; preds = %31, %17
  call void @llvm.lifetime.end.p0(i64 8, ptr %10) #12
  call void @llvm.lifetime.end.p0(i64 4, ptr %9) #12
  call void @llvm.lifetime.end.p0(i64 8, ptr %8) #12
  %35 = load i32, ptr %4, align 4
  ret i32 %35
}