; Function Attrs: nounwind uwtable
define internal i32 @opt_timecode(ptr noundef %0, ptr readnone captures(none) %1, ptr noundef %2) #0 {
  %4 = tail call ptr (ptr, ...) @av_asprintf(ptr noundef nonnull @.str.615, ptr noundef %2) #15
  %.not = icmp eq ptr %4, null
  br i1 %.not, label %13, label %5

5:                                                ; preds = %3
  %6 = tail call i32 @parse_option(ptr noundef %0, ptr noundef nonnull @.str.616, ptr noundef nonnull %4, ptr noundef nonnull @options) #15
  %7 = icmp sgt i32 %6, -1
  br i1 %7, label %8, label %12

8:                                                ; preds = %5
  %9 = load ptr, ptr %0, align 8, !tbaa !114
  %10 = getelementptr inbounds nuw i8, ptr %9, i64 32
  %11 = tail call i32 @av_dict_set(ptr noundef nonnull %10, ptr noundef nonnull @.str.617, ptr noundef %2, i32 noundef 0) #15
  br label %12

12:                                               ; preds = %8, %5
  %.010 = phi i32 [ %11, %8 ], [ %6, %5 ]
  tail call void @av_free(ptr noundef nonnull %4) #15
  br label %13

13:                                               ; preds = %3, %12
  %.0 = phi i32 [ %.010, %12 ], [ -12, %3 ]
  ret i32 %.0
}